target datalayout = "e-m:e-p270:32:32-p271:32:32-p272:64:64-i64:64-i128:128-f80:128-n8:16:32:64-S128"
target triple = "x86_64-pc-linux-gnu"

%"struct.rocksdb::ThreadData" = type { %"class.std::vector.0", ptr, ptr, ptr }
%"class.std::vector.0" = type { %"struct.std::_Vector_base.1" }
%"struct.std::_Vector_base.1" = type { %"struct.std::_Vector_base<rocksdb::Entry, std::allocator<rocksdb::Entry>>::_Vector_impl" }
%"struct.std::_Vector_base<rocksdb::Entry, std::allocator<rocksdb::Entry>>::_Vector_impl" = type { %"struct.std::_Vector_base<rocksdb::Entry, std::allocator<rocksdb::Entry>>::_Vector_impl_data" }
%"struct.std::_Vector_base<rocksdb::Entry, std::allocator<rocksdb::Entry>>::_Vector_impl_data" = type { ptr, ptr, ptr }
%"struct.rocksdb::Entry" = type { %"struct.std::atomic" }
%"struct.std::atomic" = type { %"struct.std::__atomic_base" }
%"struct.std::__atomic_base" = type { ptr }

; Function Attrs: noinline noreturn nounwind uwtable
define linkonce_odr hidden void @__clang_call_terminate(ptr noundef %0) #12 comdat {
  %2 = call ptr @__cxa_begin_catch(ptr %0) #1
  call void @_ZSt9terminatev() #21
  unreachable
}

; Function Attrs: mustprogress nounwind uwtable
define linkonce_odr noundef i32 @_ZStanSt12memory_orderSt23__memory_order_modifier(i32 noundef %0, i32 noundef %1) #6 comdat {
  %3 = alloca i32, align 4
  %4 = alloca i32, align 4
  store i32 %0, ptr %3, align 4, !tbaa !57
  store i32 %1, ptr %4, align 4, !tbaa !169
  %5 = load i32, ptr %3, align 4, !tbaa !57
  %6 = load i32, ptr %4, align 4, !tbaa !169
  %7 = and i32 %5, %6
  ret i32 %7
}

; Function Attrs: alwaysinline mustprogress nounwind uwtable
define linkonce_odr noundef ptr @_ZNKSt13__atomic_baseIPvE4loadESt12memory_order(ptr noundef nonnull align 8 dereferenceable(8) %0, i32 noundef %1) #15 comdat align 2 personality ptr @__gxx_personality_v0 {
  %3 = alloca ptr, align 8
  %4 = alloca i32, align 4
  %5 = alloca i32, align 4
  %6 = alloca ptr, align 8
  store ptr %0, ptr %3, align 8, !tbaa !167
  store i32 %1, ptr %4, align 4, !tbaa !57
  %7 = load ptr, ptr %3, align 8
  call void @llvm.lifetime.start.p0(i64 4, ptr %5) #1
  %8 = load i32, ptr %4, align 4, !tbaa !57
  %9 = invoke noundef i32 @_ZStanSt12memory_orderSt23__memory_order_modifier(i32 noundef %8, i32 noundef 65535)
          to label %10 unwind label %27

10:                                               ; preds = %2
  store i32 %9, ptr %5, align 4, !tbaa !57
  br label %11

11:                                               ; preds = %10
  br label %12

12:                                               ; preds = %11
  br label %13

13:                                               ; preds = %12
  br label %14

14:                                               ; preds = %13
  br label %15

15:                                               ; preds = %14
  br label %16

16:                                               ; preds = %15
  %17 = getelementptr inbounds nuw %"struct.std::__atomic_base", ptr %7, i32 0, i32 0
  %18 = load i32, ptr %4, align 4, !tbaa !57
  switch i32 %18, label %19 [
    i32 1, label %21
    i32 2, label %21
    i32 5, label %23
  ]

19:                                               ; preds = %16
  %20 = load atomic i64, ptr %17 monotonic, align 8
  store i64 %20, ptr %6, align 8
  br label %25

21:                                               ; preds = %16, %16
  %22 = load atomic i64, ptr %17 acquire, align 8
  store i64 %22, ptr %6, align 8
  br label %25

23:                                               ; preds = %16
  %24 = load atomic i64, ptr %17 seq_cst, align 8
  store i64 %24, ptr %6, align 8
  br label %25

25:                                               ; preds = %23, %21, %19
  %26 = load ptr, ptr %6, align 8, !tbaa !10
  call void @llvm.lifetime.end.p0(i64 4, ptr %5) #1
  ret ptr %26

27:                                               ; preds = %2
  %28 = landingpad { ptr, i32 }
          catch ptr null
  %29 = extractvalue { ptr, i32 } %28, 0
  call void @__clang_call_terminate(ptr %29) #21
  unreachable
}

; Function Attrs: mustprogress nounwind uwtable
define linkonce_odr noundef ptr @_ZNKSt6atomicIPvE4loadESt12memory_order(ptr noundef nonnull align 8 dereferenceable(8) %0, i32 noundef %1) #6 comdat align 2 {
  %3 = alloca ptr, align 8
  %4 = alloca i32, align 4
  store ptr %0, ptr %3, align 8, !tbaa !55
  store i32 %1, ptr %4, align 4, !tbaa !57
  %5 = load ptr, ptr %3, align 8
  %6 = getelementptr inbounds nuw %"struct.std::atomic", ptr %5, i32 0, i32 0
  %7 = load i32, ptr %4, align 4, !tbaa !57
  %8 = call noundef ptr @_ZNKSt13__atomic_baseIPvE4loadESt12memory_order(ptr noundef nonnull align 8 dereferenceable(8) %6, i32 noundef %7) #1
  ret ptr %8
}

; Function Attrs: mustprogress nounwind uwtable
define linkonce_odr noundef nonnull align 8 dereferenceable(8) ptr @_ZNSt6vectorIN7rocksdb5EntryESaIS1_EEixEm(ptr noundef nonnull align 8 dereferenceable(24) %0, i64 noundef %1) #6 comdat align 2 {
  %3 = alloca ptr, align 8
  %4 = alloca i64, align 8
  store ptr %0, ptr %3, align 8, !tbaa !40
  store i64 %1, ptr %4, align 8, !tbaa !78
  %5 = load ptr, ptr %3, align 8
  %6 = getelementptr inbounds nuw %"struct.std::_Vector_base.1", ptr %5, i32 0, i32 0
  %7 = getelementptr inbounds nuw %"struct.std::_Vector_base<rocksdb::Entry, std::allocator<rocksdb::Entry>>::_Vector_impl_data", ptr %6, i32 0, i32 0
  %8 = load ptr, ptr %7, align 8, !tbaa !77
  %9 = load i64, ptr %4, align 8, !tbaa !78
  %10 = getelementptr inbounds nuw %"struct.rocksdb::Entry", ptr %8, i64 %9
  ret ptr %10
}

; Function Attrs: mustprogress nounwind uwtable
define linkonce_odr noundef i64 @_ZNKSt6vectorIN7rocksdb5EntryESaIS1_EE4sizeEv(ptr noundef nonnull align 8 dereferenceable(24) %0) #6 comdat align 2 {
  %2 = alloca ptr, align 8
  store ptr %0, ptr %2, align 8, !tbaa !40
  %3 = load ptr, ptr %2, align 8
  %4 = getelementptr inbounds nuw %"struct.std::_Vector_base.1", ptr %3, i32 0, i32 0
  %5 = getelementptr inbounds nuw %"struct.std::_Vector_base<rocksdb::Entry, std::allocator<rocksdb::Entry>>::_Vector_impl_data", ptr %4, i32 0, i32 1
  %6 = load ptr, ptr %5, align 8, !tbaa !76
  %7 = getelementptr inbounds nuw %"struct.std::_Vector_base.1", ptr %3, i32 0, i32 0
  %8 = getelementptr inbounds nuw %"struct.std::_Vector_base<rocksdb::Entry, std::allocator<rocksdb::Entry>>::_Vector_impl_data", ptr %7, i32 0, i32 0
  %9 = load ptr, ptr %8, align 8, !tbaa !77
  %10 = ptrtoint ptr %6 to i64
  %11 = ptrtoint ptr %9 to i64
  %12 = sub i64 %10, %11
  %13 = sdiv exact i64 %12, 8
  ret i64 %13
}

; Function Attrs: mustprogress uwtable
define noundef ptr @_ZNK7rocksdb14ThreadLocalPtr10StaticMeta3GetEj(ptr noundef nonnull align 8 dereferenceable(228) %0, i32 noundef %1) #0 align 2 {
  %3 = alloca ptr, align 8
  %4 = alloca ptr, align 8
  %5 = alloca i32, align 4
  %6 = alloca ptr, align 8
  %7 = alloca i32, align 4
  store ptr %0, ptr %4, align 8, !tbaa !5
  store i32 %1, ptr %5, align 4, !tbaa !39
  call void @llvm.lifetime.start.p0(i64 8, ptr %6) #1
  %8 = call noundef ptr @_ZN7rocksdb14ThreadLocalPtr10StaticMeta14GetThreadLocalEv()
  store ptr %8, ptr %6, align 8, !tbaa !11
  %9 = load i32, ptr %5, align 4, !tbaa !39
  %10 = zext i32 %9 to i64
  %11 = load ptr, ptr %6, align 8, !tbaa !11
  %12 = getelementptr inbounds nuw %"struct.rocksdb::ThreadData", ptr %11, i32 0, i32 0
  %13 = call noundef i64 @_ZNKSt6vectorIN7rocksdb5EntryESaIS1_EE4sizeEv(ptr noundef nonnull align 8 dereferenceable(24) %12) #1
  %14 = icmp uge i64 %10, %13
  %15 = zext i1 %14 to i64
  %16 = call i64 @llvm.expect.i64(i64 %15, i64 0)
  %17 = icmp ne i64 %16, 0
  br i1 %17, label %18, label %19

18:                                               ; preds = %2
  store ptr null, ptr %3, align 8
  store i32 1, ptr %7, align 4
  br label %27

19:                                               ; preds = %2
  %20 = load ptr, ptr %6, align 8, !tbaa !11
  %21 = getelementptr inbounds nuw %"struct.rocksdb::ThreadData", ptr %20, i32 0, i32 0
  %22 = load i32, ptr %5, align 4, !tbaa !39
  %23 = zext i32 %22 to i64
  %24 = call noundef nonnull align 8 dereferenceable(8) ptr @_ZNSt6vectorIN7rocksdb5EntryESaIS1_EEixEm(ptr noundef nonnull align 8 dereferenceable(24) %21, i64 noundef %23) #1
  %25 = getelementptr inbounds nuw %"struct.rocksdb::Entry", ptr %24, i32 0, i32 0
  %26 = call noundef ptr @_ZNKSt6atomicIPvE4loadESt12memory_order(ptr noundef nonnull align 8 dereferenceable(8) %25, i32 noundef 2) #1
  store ptr %26, ptr %3, align 8
  store i32 1, ptr %7, align 4
  br label %27

27:                                               ; preds = %19, %18
  call void @llvm.lifetime.end.p0(i64 8, ptr %6) #1
  %28 = load ptr, ptr %3, align 8
  ret ptr %28
}