; Function Attrs: mustprogress uwtable
define noundef ptr @_ZNK7rocksdb14ThreadLocalPtr10StaticMeta3GetEj(ptr noundef nonnull readnone align 8 captures(none) dereferenceable(228) %0, i32 noundef %1) local_unnamed_addr #0 align 2 personality ptr @__gxx_personality_v0 {
  %3 = tail call noundef ptr @_ZN7rocksdb14ThreadLocalPtr10StaticMeta14GetThreadLocalEv()
  %4 = zext i32 %1 to i64
  %5 = getelementptr inbounds nuw i8, ptr %3, i64 8
  %6 = load ptr, ptr %5, align 8, !tbaa !70
  %7 = load ptr, ptr %3, align 8, !tbaa !38
  %8 = ptrtoint ptr %6 to i64
  %9 = ptrtoint ptr %7 to i64
  %10 = sub i64 %8, %9
  %11 = ashr exact i64 %10, 3
  %.not = icmp ugt i64 %11, %4
  br i1 %.not, label %12, label %15, !prof !71

12:                                               ; preds = %2
  %13 = getelementptr inbounds nuw %"struct.rocksdb::Entry", ptr %7, i64 %4
  %14 = load atomic i64, ptr %13 acquire, align 8
  %.0.i.i = inttoptr i64 %14 to ptr
  br label %15

15:                                               ; preds = %2, %12
  %.0 = phi ptr [ %.0.i.i, %12 ], [ null, %2 ]
  ret ptr %.0
}